Certificate:
    Data:
        Version: 3 (0x2)
        Serial Number: 37 (0x25)
    Signature Algorithm: sha256WithRSAEncryption
        Issuer: C=CN, ST=Beijing, O=PDX, OU=PDX, CN=CA-Root
        Validity
            Not Before: Jan  9 08:56:26 2019 GMT
            Not After : Jan  6 08:56:26 2029 GMT
        Subject: C=CN, ST=Beijing, O=PDX, OU=PDX, CN=CA-TrustSigner
        Subject Public Key Info:
            Public Key Algorithm: rsaEncryption
                Public-Key: (2048 bit)
                Modulus:
                    00:d5:d3:20:98:20:ef:ec:77:07:d9:36:85:52:2b:
                    45:34:f5:de:ab:60:69:cd:30:bd:f4:02:b9:38:44:
                    9f:48:f4:cf:1b:c6:a4:1f:dd:a6:37:21:70:f7:bb:
                    1e:7a:0b:06:d8:05:cf:98:af:f5:97:3a:5a:15:e6:
                    66:1e:e7:b7:31:16:de:25:02:48:26:9d:76:89:85:
                    4a:85:b1:87:4c:2f:76:0a:55:28:ad:01:b3:f7:b6:
                    cf:87:08:a0:b4:60:59:68:55:cf:c7:6a:18:46:e4:
                    1a:28:46:75:3e:27:8b:33:0e:3e:91:3b:6d:3d:15:
                    1e:f8:57:5d:16:bd:0f:7d:1a:e2:f2:86:c0:89:c8:
                    d6:e1:9b:b5:bd:51:a9:65:7d:85:a9:d8:57:84:a4:
                    7c:de:5c:32:1d:9e:20:41:bf:9d:d4:3a:5e:60:50:
                    1e:a1:45:89:c4:81:b0:9f:39:7f:4a:00:2b:10:4f:
                    06:33:a7:f9:58:fc:39:ca:52:57:8e:0a:df:b2:42:
                    68:00:c2:c0:90:19:92:22:10:fe:32:23:4e:59:fb:
                    67:b5:1a:12:89:d4:43:c6:fa:3c:3e:df:9e:45:5a:
                    f5:ab:f7:6c:77:f6:41:45:d0:b7:fd:54:9a:d8:41:
                    62:25:7c:56:be:a1:b9:21:ff:f2:3d:c3:66:d2:06:
                    db:99
                Exponent: 65537 (0x10001)
        X509v3 extensions:
            X509v3 Basic Constraints: 
                CA:TRUE
            Netscape Comment: 
                OpenSSL Generated Certificate
            X509v3 Subject Key Identifier: 
                00:F2:C6:8E:2F:CE:DF:5C:36:D7:7E:D7:A8:3A:46:A9:00:52:3D:60
            X509v3 Authority Key Identifier: 
                keyid:EC:03:EF:85:95:62:D0:83:50:32:FA:A1:05:C4:D7:9A:F5:72:5F:F8

    Signature Algorithm: sha256WithRSAEncryption
         79:7e:2e:47:0e:e1:f2:ee:95:d4:d5:4d:27:b4:c5:1f:bd:aa:
         9f:60:58:7b:1c:3a:c1:68:13:59:db:4b:c3:7d:8f:d0:5f:cd:
         d4:78:ee:5e:d9:64:17:36:b4:50:78:72:a9:5f:2d:f1:7f:68:
         63:33:e9:ad:e0:61:a8:f2:d0:c1:cd:fb:0f:bb:2d:41:34:5a:
         02:e4:1c:d7:44:fe:b4:13:b0:0b:ed:6e:f3:69:4d:e0:45:77:
         f5:dc:64:65:e0:25:7e:ea:41:11:fd:04:f1:16:e9:c2:a4:db:
         2c:c2:cd:53:3f:25:6e:4d:bf:44:ef:56:9b:5c:09:a4:f2:75:
         10:fa:7f:25:cd:92:97:96:bf:e6:c2:f9:1e:33:ad:47:1e:b7:
         b2:01:a1:eb:60:b6:3a:88:d1:eb:e9:e4:b1:b3:ac:38:91:80:
         64:b2:fe:e7:1f:30:75:35:59:7f:0e:1b:4c:19:5c:3d:f3:3a:
         78:b8:00:6a:88:a2:8b:89:33:75:90:be:eb:c8:7f:f9:83:6f:
         2f:4a:de:16:65:79:63:95:0e:8f:36:39:77:08:d5:4b:94:d4:
         32:4c:10:19:85:49:96:ae:c1:e3:c2:b4:d5:c6:5d:91:7d:ed:
         47:32:3e:e9:86:e9:e6:ec:66:4b:6f:f5:3d:6f:f2:29:9a:c1:
         9e:13:fc:27
-----BEGIN CERTIFICATE-----
MIIDmjCCAoKgAwIBAgIBJTANBgkqhkiG9w0BAQsFADBNMQswCQYDVQQGEwJDTjEQ
MA4GA1UECAwHQmVpamluZzEMMAoGA1UECgwDUERYMQwwCgYDVQQLDANQRFgxEDAO
BgNVBAMMB0NBLVJvb3QwHhcNMTkwMTA5MDg1NjI2WhcNMjkwMTA2MDg1NjI2WjBU
MQswCQYDVQQGEwJDTjEQMA4GA1UECAwHQmVpamluZzEMMAoGA1UECgwDUERYMQww
CgYDVQQLDANQRFgxFzAVBgNVBAMMDkNBLVRydXN0U2lnbmVyMIIBIjANBgkqhkiG
9w0BAQEFAAOCAQ8AMIIBCgKCAQEA1dMgmCDv7HcH2TaFUitFNPXeq2BpzTC99AK5
OESfSPTPG8akH92mNyFw97seegsG2AXPmK/1lzpaFeZmHue3MRbeJQJIJp12iYVK
hbGHTC92ClUorQGz97bPhwigtGBZaFXPx2oYRuQaKEZ1PieLMw4+kTttPRUe+Fdd
Fr0PfRri8obAicjW4Zu1vVGpZX2FqdhXhKR83lwyHZ4gQb+d1DpeYFAeoUWJxIGw
nzl/SgArEE8GM6f5WPw5ylJXjgrfskJoAMLAkBmSIhD+MiNOWftntRoSidRDxvo8
Pt+eRVr1q/dsd/ZBRdC3/VSa2EFiJXxWvqG5If/yPcNm0gbbmQIDAQABo34wfDAM
BgNVHRMEBTADAQH/MCwGCWCGSAGG+EIBDQQfFh1PcGVuU1NMIEdlbmVyYXRlZCBD
ZXJ0aWZpY2F0ZTAdBgNVHQ4EFgQUAPLGji/O31w2137XqDpGqQBSPWAwHwYDVR0j
BBgwFoAU7APvhZVi0INQMvqhBcTXmvVyX/gwDQYJKoZIhvcNAQELBQADggEBAHl+
LkcO4fLuldTVTSe0xR+9qp9gWHscOsFoE1nbS8N9j9BfzdR47l7ZZBc2tFB4cqlf
LfF/aGMz6a3gYajy0MHN+w+7LUE0WgLkHNdE/rQTsAvtbvNpTeBFd/XcZGXgJX7q
QRH9BPEW6cKk2yzCzVM/JW5Nv0TvVptcCaTydRD6fyXNkpeWv+bC+R4zrUcet7IB
oetgtjqI0evp5LGzrDiRgGSy/ucfMHU1WX8OG0wZXD3zOni4AGqIoouJM3WQvuvI
f/mDby9K3hZleWOVDo82OXcI1UuU1DJMEBmFSZauwePCtNXGXZF97UcyPumG6ebs
Zktv9T1v8imawZ4T/Cc=
-----END CERTIFICATE-----
